target datalayout = "e-m:e-p270:32:32-p271:32:32-p272:64:64-i64:64-i128:128-f80:128-n8:16:32:64-S128"
target triple = "x86_64-pc-linux-gnu"

%"class.OpenImageIO::v3_1_0::(anonymous namespace)::SampleComparator" = type <{ ptr, i32, i32, i32, [4 x i8] }>
%"struct.__gnu_cxx::__ops::_Iter_comp_iter" = type { %"class.OpenImageIO::v3_1_0::(anonymous namespace)::SampleComparator" }

; Function Attrs: mustprogress uwtable
define internal void @_ZSt21__inplace_stable_sortIPiN9__gnu_cxx5__ops15_Iter_comp_iterIN11OpenImageIO6v3_1_012_GLOBAL__N_116SampleComparatorEEEEvT_S9_T0_(ptr noundef %0, ptr noundef %1, ptr noundef byval(%"struct.__gnu_cxx::__ops::_Iter_comp_iter") align 8 %2) #6 {
  %4 = alloca ptr, align 8
  %5 = alloca ptr, align 8
  %6 = alloca %"struct.__gnu_cxx::__ops::_Iter_comp_iter", align 8
  %7 = alloca ptr, align 8
  %8 = alloca %"struct.__gnu_cxx::__ops::_Iter_comp_iter", align 8
  %9 = alloca %"struct.__gnu_cxx::__ops::_Iter_comp_iter", align 8
  %10 = alloca %"struct.__gnu_cxx::__ops::_Iter_comp_iter", align 8
  store ptr %0, ptr %4, align 8, !tbaa !128
  store ptr %1, ptr %5, align 8, !tbaa !128
  %11 = load ptr, ptr %5, align 8, !tbaa !128
  %12 = load ptr, ptr %4, align 8, !tbaa !128
  %13 = ptrtoint ptr %11 to i64
  %14 = ptrtoint ptr %12 to i64
  %15 = sub i64 %13, %14
  %16 = sdiv exact i64 %15, 4
  %17 = icmp slt i64 %16, 15
  br i1 %17, label %18, label %21

18:                                               ; preds = %3
  %19 = load ptr, ptr %4, align 8, !tbaa !128
  %20 = load ptr, ptr %5, align 8, !tbaa !128
  call void @llvm.memcpy.p0.p0.i64(ptr align 8 %6, ptr align 8 %2, i64 24, i1 false), !tbaa.struct !430
  call void @_ZSt16__insertion_sortIPiN9__gnu_cxx5__ops15_Iter_comp_iterIN11OpenImageIO6v3_1_012_GLOBAL__N_116SampleComparatorEEEEvT_S9_T0_(ptr noundef %19, ptr noundef %20, ptr noundef byval(%"struct.__gnu_cxx::__ops::_Iter_comp_iter") align 8 %6)
  br label %50

21:                                               ; preds = %3
  call void @llvm.lifetime.start.p0(i64 8, ptr %7) #3
  %22 = load ptr, ptr %4, align 8, !tbaa !128
  %23 = load ptr, ptr %5, align 8, !tbaa !128
  %24 = load ptr, ptr %4, align 8, !tbaa !128
  %25 = ptrtoint ptr %23 to i64
  %26 = ptrtoint ptr %24 to i64
  %27 = sub i64 %25, %26
  %28 = sdiv exact i64 %27, 4
  %29 = sdiv i64 %28, 2
  %30 = getelementptr inbounds i32, ptr %22, i64 %29
  store ptr %30, ptr %7, align 8, !tbaa !128
  %31 = load ptr, ptr %4, align 8, !tbaa !128
  %32 = load ptr, ptr %7, align 8, !tbaa !128
  call void @llvm.memcpy.p0.p0.i64(ptr align 8 %8, ptr align 8 %2, i64 24, i1 false), !tbaa.struct !430
  call void @_ZSt21__inplace_stable_sortIPiN9__gnu_cxx5__ops15_Iter_comp_iterIN11OpenImageIO6v3_1_012_GLOBAL__N_116SampleComparatorEEEEvT_S9_T0_(ptr noundef %31, ptr noundef %32, ptr noundef byval(%"struct.__gnu_cxx::__ops::_Iter_comp_iter") align 8 %8)
  %33 = load ptr, ptr %7, align 8, !tbaa !128
  %34 = load ptr, ptr %5, align 8, !tbaa !128
  call void @llvm.memcpy.p0.p0.i64(ptr align 8 %9, ptr align 8 %2, i64 24, i1 false), !tbaa.struct !430
  call void @_ZSt21__inplace_stable_sortIPiN9__gnu_cxx5__ops15_Iter_comp_iterIN11OpenImageIO6v3_1_012_GLOBAL__N_116SampleComparatorEEEEvT_S9_T0_(ptr noundef %33, ptr noundef %34, ptr noundef byval(%"struct.__gnu_cxx::__ops::_Iter_comp_iter") align 8 %9)
  %35 = load ptr, ptr %4, align 8, !tbaa !128
  %36 = load ptr, ptr %7, align 8, !tbaa !128
  %37 = load ptr, ptr %5, align 8, !tbaa !128
  %38 = load ptr, ptr %7, align 8, !tbaa !128
  %39 = load ptr, ptr %4, align 8, !tbaa !128
  %40 = ptrtoint ptr %38 to i64
  %41 = ptrtoint ptr %39 to i64
  %42 = sub i64 %40, %41
  %43 = sdiv exact i64 %42, 4
  %44 = load ptr, ptr %5, align 8, !tbaa !128
  %45 = load ptr, ptr %7, align 8, !tbaa !128
  %46 = ptrtoint ptr %44 to i64
  %47 = ptrtoint ptr %45 to i64
  %48 = sub i64 %46, %47
  %49 = sdiv exact i64 %48, 4
  call void @llvm.memcpy.p0.p0.i64(ptr align 8 %10, ptr align 8 %2, i64 24, i1 false), !tbaa.struct !430
  call void @_ZSt22__merge_without_bufferIPilN9__gnu_cxx5__ops15_Iter_comp_iterIN11OpenImageIO6v3_1_012_GLOBAL__N_116SampleComparatorEEEEvT_S9_S9_T0_SA_T1_(ptr noundef %35, ptr noundef %36, ptr noundef %37, i64 noundef %43, i64 noundef %49, ptr noundef byval(%"struct.__gnu_cxx::__ops::_Iter_comp_iter") align 8 %10)
  call void @llvm.lifetime.end.p0(i64 8, ptr %7) #3
  br label %50

50:                                               ; preds = %21, %18
  ret void
}