; Function Attrs: mustprogress uwtable
define internal fastcc void @_ZSt21__inplace_stable_sortIPiN9__gnu_cxx5__ops15_Iter_comp_iterIN11OpenImageIO6v3_1_012_GLOBAL__N_116SampleComparatorEEEEvT_S9_T0_(ptr noundef nonnull %0, ptr noundef nonnull %1, ptr noundef readonly byval(%"struct.__gnu_cxx::__ops::_Iter_comp_iter") align 8 captures(none) %2) unnamed_addr #5 {
  %4 = ptrtoint ptr %1 to i64
  %5 = ptrtoint ptr %0 to i64
  %6 = sub i64 %4, %5
  %7 = ashr exact i64 %6, 2
  %8 = icmp slt i64 %7, 15
  br i1 %8, label %common.ret, label %9

common.ret:                                       ; preds = %3
  tail call fastcc void @_ZSt16__insertion_sortIPiN9__gnu_cxx5__ops15_Iter_comp_iterIN11OpenImageIO6v3_1_012_GLOBAL__N_116SampleComparatorEEEEvT_S9_T0_(ptr noundef %0, ptr noundef %1, ptr noundef nonnull byval(%"struct.__gnu_cxx::__ops::_Iter_comp_iter") align 8 %2)
  br label %common.ret18

common.ret18:                                     ; preds = %9, %common.ret
  ret void

9:                                                ; preds = %3
  %10 = lshr i64 %7, 1
  %11 = getelementptr inbounds nuw i32, ptr %0, i64 %10
  tail call fastcc void @_ZSt21__inplace_stable_sortIPiN9__gnu_cxx5__ops15_Iter_comp_iterIN11OpenImageIO6v3_1_012_GLOBAL__N_116SampleComparatorEEEEvT_S9_T0_(ptr noundef %0, ptr noundef %11, ptr noundef nonnull byval(%"struct.__gnu_cxx::__ops::_Iter_comp_iter") align 8 %2)
  tail call fastcc void @_ZSt21__inplace_stable_sortIPiN9__gnu_cxx5__ops15_Iter_comp_iterIN11OpenImageIO6v3_1_012_GLOBAL__N_116SampleComparatorEEEEvT_S9_T0_(ptr noundef %11, ptr noundef %1, ptr noundef nonnull byval(%"struct.__gnu_cxx::__ops::_Iter_comp_iter") align 8 %2)
  %12 = ptrtoint ptr %11 to i64
  %13 = sub i64 %4, %12
  %14 = ashr exact i64 %13, 2
  tail call fastcc void @_ZSt22__merge_without_bufferIPilN9__gnu_cxx5__ops15_Iter_comp_iterIN11OpenImageIO6v3_1_012_GLOBAL__N_116SampleComparatorEEEEvT_S9_S9_T0_SA_T1_(ptr noundef nonnull %0, ptr noundef nonnull %11, ptr noundef nonnull %1, i64 noundef %10, i64 noundef %14, ptr noundef nonnull byval(%"struct.__gnu_cxx::__ops::_Iter_comp_iter") align 8 %2)
  br label %common.ret18
}